target datalayout = "e-m:e-p270:32:32-p271:32:32-p272:64:64-i64:64-i128:128-f80:128-n8:16:32:64-S128"
target triple = "x86_64-pc-linux-gnu"

@.str.4 = private unnamed_addr constant [13 x i8] c"postmaster.c\00", align 1
@pmState = internal global i32 0, align 4
@.str.127 = private unnamed_addr constant [31 x i8] c"updating PMState from %s to %s\00", align 1
@__func__.UpdatePMState = private unnamed_addr constant [14 x i8] c"UpdatePMState\00", align 1
@.str.128 = private unnamed_addr constant [8 x i8] c"PM_INIT\00", align 1
@.str.129 = private unnamed_addr constant [11 x i8] c"PM_STARTUP\00", align 1
@.str.130 = private unnamed_addr constant [12 x i8] c"PM_RECOVERY\00", align 1
@.str.131 = private unnamed_addr constant [15 x i8] c"PM_HOT_STANDBY\00", align 1
@.str.132 = private unnamed_addr constant [7 x i8] c"PM_RUN\00", align 1
@.str.133 = private unnamed_addr constant [17 x i8] c"PM_STOP_BACKENDS\00", align 1
@.str.134 = private unnamed_addr constant [17 x i8] c"PM_WAIT_BACKENDS\00", align 1
@.str.135 = private unnamed_addr constant [22 x i8] c"PM_WAIT_XLOG_SHUTDOWN\00", align 1
@.str.136 = private unnamed_addr constant [22 x i8] c"PM_WAIT_XLOG_ARCHIVAL\00", align 1
@.str.137 = private unnamed_addr constant [17 x i8] c"PM_WAIT_DEAD_END\00", align 1
@.str.138 = private unnamed_addr constant [21 x i8] c"PM_WAIT_CHECKPOINTER\00", align 1
@.str.139 = private unnamed_addr constant [15 x i8] c"PM_NO_CHILDREN\00", align 1

; Function Attrs: nounwind uwtable
define internal ptr @pmstate_name(i32 noundef %0) #2 {
  %2 = alloca ptr, align 8
  %3 = alloca i32, align 4
  store i32 %0, ptr %3, align 4
  %4 = load i32, ptr %3, align 4
  switch i32 %4, label %17 [
    i32 0, label %5
    i32 1, label %6
    i32 2, label %7
    i32 3, label %8
    i32 4, label %9
    i32 5, label %10
    i32 6, label %11
    i32 7, label %12
    i32 8, label %13
    i32 10, label %14
    i32 9, label %15
    i32 11, label %16
  ]

5:                                                ; preds = %1
  store ptr @.str.128, ptr %2, align 8
  br label %18

6:                                                ; preds = %1
  store ptr @.str.129, ptr %2, align 8
  br label %18

7:                                                ; preds = %1
  store ptr @.str.130, ptr %2, align 8
  br label %18

8:                                                ; preds = %1
  store ptr @.str.131, ptr %2, align 8
  br label %18

9:                                                ; preds = %1
  store ptr @.str.132, ptr %2, align 8
  br label %18

10:                                               ; preds = %1
  store ptr @.str.133, ptr %2, align 8
  br label %18

11:                                               ; preds = %1
  store ptr @.str.134, ptr %2, align 8
  br label %18

12:                                               ; preds = %1
  store ptr @.str.135, ptr %2, align 8
  br label %18

13:                                               ; preds = %1
  store ptr @.str.136, ptr %2, align 8
  br label %18

14:                                               ; preds = %1
  store ptr @.str.137, ptr %2, align 8
  br label %18

15:                                               ; preds = %1
  store ptr @.str.138, ptr %2, align 8
  br label %18

16:                                               ; preds = %1
  store ptr @.str.139, ptr %2, align 8
  br label %18

17:                                               ; preds = %1
  unreachable

18:                                               ; preds = %16, %15, %14, %13, %12, %11, %10, %9, %8, %7, %6, %5
  %19 = load ptr, ptr %2, align 8
  ret ptr %19
}

; Function Attrs: nounwind uwtable
define internal void @UpdatePMState(i32 noundef %0) #2 {
  %2 = alloca i32, align 4
  store i32 %0, ptr %2, align 4
  br label %3

3:                                                ; preds = %1
  br i1 false, label %4, label %6

4:                                                ; preds = %3
  %5 = call zeroext i1 @errstart_cold(i32 noundef 14, ptr noundef null) #16
  br i1 %5, label %8, label %14

6:                                                ; preds = %3
  %7 = call zeroext i1 @errstart(i32 noundef 14, ptr noundef null)
  br i1 %7, label %8, label %14

8:                                                ; preds = %6, %4
  %9 = load i32, ptr @pmState, align 4
  %10 = call ptr @pmstate_name(i32 noundef %9)
  %11 = load i32, ptr %2, align 4
  %12 = call ptr @pmstate_name(i32 noundef %11)
  %13 = call i32 (ptr, ...) @errmsg_internal(ptr noundef @.str.127, ptr noundef %10, ptr noundef %12)
  call void @errfinish(ptr noundef @.str.4, i32 noundef 3220, ptr noundef @__func__.UpdatePMState)
  br label %14

14:                                               ; preds = %8, %6, %4
  br label %15

15:                                               ; preds = %14
  %16 = load i32, ptr %2, align 4
  store i32 %16, ptr @pmState, align 4
  ret void
}