; Function Attrs: nounwind uwtable
define internal fastcc void @UpdatePMState(i32 noundef range(i32 1, 12) %0) unnamed_addr #2 {
  %2 = tail call zeroext i1 @errstart(i32 noundef 14, ptr noundef null) #18
  br i1 %2, label %switch.lookup, label %7

switch.lookup:                                    ; preds = %1
  %3 = load i32, ptr @pmState, align 4
  %4 = sext i32 %3 to i64
  %switch.gep = getelementptr inbounds [12 x ptr], ptr @switch.table.HandleFatalError.20, i64 0, i64 %4
  %switch.load = load ptr, ptr %switch.gep, align 8
  %switch.tableidx = add nsw i32 %0, -1
  %5 = sext i32 %switch.tableidx to i64
  %switch.gep6 = getelementptr inbounds [11 x ptr], ptr @switch.table.UpdatePMState.2, i64 0, i64 %5
  %switch.load7 = load ptr, ptr %switch.gep6, align 8
  %6 = tail call i32 (ptr, ...) @errmsg_internal(ptr noundef nonnull @.str.127, ptr noundef nonnull %switch.load, ptr noundef nonnull %switch.load7) #18
  tail call void @errfinish(ptr noundef nonnull @.str.4, i32 noundef 3220, ptr noundef nonnull @__func__.UpdatePMState) #18
  br label %7

7:                                                ; preds = %1, %switch.lookup
  store i32 %0, ptr @pmState, align 4
  ret void
}